(dp0
Vengine
p1
Vpdflatex
p2
sVpackages
p3
c__builtin__
set
p4
((lp5
Vcolor
p6
aVstfloats
p7
aVgraphicx
p8
aVamsmath
p9
aVamssymb
p10
atp11
Rp12
sVfiles_with_guttermarks
p13
g4
((lp14
V/Users/sivaambi/GitHub/Data_driven_Kinetics/paper/./paper.tex
p15
aS'paper.tex'
p16
atp17
Rp18
sVsynctex
p19
I01
s.